; Function Attrs: mustprogress uwtable
define noundef zeroext i1 @_ZN2cv12VideoCapture4openERKNSt7__cxx1112basic_stringIcSt11char_traitsIcESaIcEEEi(ptr noundef nonnull align 8 dereferenceable(41) %0, ptr noundef nonnull align 8 dereferenceable(32) %1, i32 noundef %2) unnamed_addr #3 align 2 personality ptr @__gxx_personality_v0 {
  %4 = alloca %"class.std::vector", align 8
  call void @llvm.lifetime.start.p0(i64 24, ptr nonnull %4) #27
  call void @llvm.memset.p0.i64(ptr noundef nonnull align 8 dereferenceable(24) %4, i8 0, i64 24, i1 false)
  %5 = load ptr, ptr %0, align 8, !tbaa !10
  %6 = getelementptr inbounds nuw i8, ptr %5, i64 24
  %7 = load ptr, ptr %6, align 8
  %8 = invoke noundef zeroext i1 %7(ptr noundef nonnull align 8 dereferenceable(41) %0, ptr noundef nonnull align 8 dereferenceable(32) %1, i32 noundef %2, ptr noundef nonnull align 8 dereferenceable(24) %4)
          to label %9 unwind label %12

9:                                                ; preds = %3
  %10 = load ptr, ptr %4, align 8, !tbaa !27
  %.not.i.i.i = icmp eq ptr %10, null
  br i1 %.not.i.i.i, label %_ZNSt6vectorIiSaIiEED2Ev.exit, label %11

11:                                               ; preds = %9
  call void @_ZdlPv(ptr noundef nonnull %10) #28
  br label %_ZNSt6vectorIiSaIiEED2Ev.exit

_ZNSt6vectorIiSaIiEED2Ev.exit:                    ; preds = %9, %11
  call void @llvm.lifetime.end.p0(i64 24, ptr nonnull %4) #27
  ret i1 %8

12:                                               ; preds = %3
  %13 = landingpad { ptr, i32 }
          cleanup
  %14 = load ptr, ptr %4, align 8, !tbaa !27
  %.not.i.i.i4 = icmp eq ptr %14, null
  br i1 %.not.i.i.i4, label %_ZNSt6vectorIiSaIiEED2Ev.exit5, label %15

15:                                               ; preds = %12
  call void @_ZdlPv(ptr noundef nonnull %14) #28
  br label %_ZNSt6vectorIiSaIiEED2Ev.exit5

_ZNSt6vectorIiSaIiEED2Ev.exit5:                   ; preds = %12, %15
  call void @llvm.lifetime.end.p0(i64 24, ptr nonnull %4) #27
  resume { ptr, i32 } %13
}